; Function Attrs: nounwind uwtable
define hidden i32 @ir_fold(ptr nocapture noundef %0, i32 noundef %1, i32 noundef %2, i32 noundef %3, i32 noundef %4) local_unnamed_addr #0 {
  %6 = getelementptr inbounds i8, ptr %0, i64 24
  %7 = load i32, ptr %6, align 8
  %8 = and i32 %7, 131072
  %.not = icmp eq i32 %8, 0
  br i1 %.not, label %9, label %41

9:                                                ; preds = %5
  %10 = and i32 %1, 255
  %11 = icmp eq i32 %10, 59
  %12 = or i32 %1, 196608
  %spec.select = select i1 %11, i32 %12, i32 %1
  %13 = getelementptr inbounds i8, ptr %0, i64 8
  %14 = load i32, ptr %13, align 8
  %15 = getelementptr inbounds i8, ptr %0, i64 12
  %16 = load i32, ptr %15, align 4
  %.not.i.i = icmp slt i32 %14, %16
  %.pre.i = load ptr, ptr %0, align 8
  br i1 %.not.i.i, label %ir_emit.exit, label %17

17:                                               ; preds = %9
  %18 = getelementptr inbounds i8, ptr %0, i64 20
  %19 = load i32, ptr %18, align 4
  %20 = icmp slt i32 %16, 4096
  %21 = shl nsw i32 %16, 1
  %22 = icmp ult i32 %16, 8192
  %23 = add nuw nsw i32 %16, 4096
  %spec.select.i.i.i = select i1 %22, i32 8192, i32 %23
  %.sink.i.i.i = select i1 %20, i32 %21, i32 %spec.select.i.i.i
  store i32 %.sink.i.i.i, ptr %15, align 4
  %24 = sext i32 %19 to i64
  %25 = sub nsw i64 0, %24
  %26 = getelementptr inbounds %struct._ir_insn, ptr %.pre.i, i64 %25
  %27 = add nsw i32 %19, %.sink.i.i.i
  %28 = sext i32 %27 to i64
  %29 = shl nsw i64 %28, 4
  %30 = tail call ptr @_erealloc(ptr noundef %26, i64 noundef %29) #24
  %31 = load i32, ptr %18, align 4
  %32 = sext i32 %31 to i64
  %33 = getelementptr inbounds %struct._ir_insn, ptr %30, i64 %32
  store ptr %33, ptr %0, align 8
  br label %ir_emit.exit

ir_emit.exit:                                     ; preds = %9, %17
  %34 = phi ptr [ %.pre.i, %9 ], [ %33, %17 ]
  %35 = add nsw i32 %14, 1
  store i32 %35, ptr %13, align 8
  %36 = sext i32 %14 to i64
  %37 = getelementptr inbounds %struct._ir_insn, ptr %34, i64 %36
  store i32 %spec.select, ptr %37, align 8
  %38 = getelementptr inbounds i8, ptr %37, i64 4
  store i32 %2, ptr %38, align 4
  %39 = getelementptr inbounds i8, ptr %37, i64 8
  store i32 %3, ptr %39, align 8
  %40 = getelementptr inbounds i8, ptr %37, i64 12
  store i32 %4, ptr %40, align 4
  br label %48

41:                                               ; preds = %5
  %42 = load ptr, ptr %0, align 8
  %43 = sext i32 %2 to i64
  %44 = getelementptr inbounds %struct._ir_insn, ptr %42, i64 %43
  %45 = sext i32 %3 to i64
  %46 = getelementptr inbounds %struct._ir_insn, ptr %42, i64 %45
  %47 = tail call i32 @ir_folding(ptr noundef nonnull %0, i32 noundef %1, i32 noundef %2, i32 noundef %3, i32 noundef %4, ptr noundef %44, ptr noundef %46, ptr poison)
  br label %48

48:                                               ; preds = %41, %ir_emit.exit
  %.0 = phi i32 [ %14, %ir_emit.exit ], [ %47, %41 ]
  ret i32 %.0
}